; Function Attrs: mustprogress uwtable
define hidden void @_ZN4lean23csimp_replace_constantsERKNS_16elab_environmentERKNS_4exprE(ptr dead_on_unwind noalias writable writeonly sret(%"class.lean::expr") align 8 captures(none) initializes((0, 8)) %0, ptr noundef nonnull readonly align 8 captures(none) dereferenceable(8) %1, ptr noundef nonnull readonly align 8 captures(none) dereferenceable(8) %2) #0 {
  %4 = load ptr, ptr %1, align 8, !tbaa !13
  %5 = ptrtoint ptr %4 to i64
  %6 = and i64 %5, 1
  %.not.i.i = icmp eq i64 %6, 0
  br i1 %.not.i.i, label %7, label %_ZNK4lean10object_ref10to_obj_argEv.exit

7:                                                ; preds = %3
  %.val.i.i.i = load i32, ptr %4, align 4, !tbaa !25
  %8 = icmp sgt i32 %.val.i.i.i, 0
  br i1 %8, label %9, label %11, !prof !28

9:                                                ; preds = %7
  %10 = add nuw nsw i32 %.val.i.i.i, 1
  store i32 %10, ptr %4, align 4, !tbaa !25
  br label %_ZNK4lean10object_ref10to_obj_argEv.exit

11:                                               ; preds = %7
  %.not.i.i.i = icmp eq i32 %.val.i.i.i, 0
  br i1 %.not.i.i.i, label %_ZNK4lean10object_ref10to_obj_argEv.exit, label %12

12:                                               ; preds = %11
  tail call void @lean_inc_ref_cold(ptr noundef nonnull %4)
  %.pre.i = load ptr, ptr %1, align 8, !tbaa !13
  br label %_ZNK4lean10object_ref10to_obj_argEv.exit

_ZNK4lean10object_ref10to_obj_argEv.exit:         ; preds = %3, %9, %11, %12
  %13 = phi ptr [ %4, %3 ], [ %4, %9 ], [ %4, %11 ], [ %.pre.i, %12 ]
  %14 = load ptr, ptr %2, align 8, !tbaa !13
  %15 = ptrtoint ptr %14 to i64
  %16 = and i64 %15, 1
  %.not.i.i2 = icmp eq i64 %16, 0
  br i1 %.not.i.i2, label %17, label %_ZNK4lean10object_ref10to_obj_argEv.exit6

17:                                               ; preds = %_ZNK4lean10object_ref10to_obj_argEv.exit
  %.val.i.i.i3 = load i32, ptr %14, align 4, !tbaa !25
  %18 = icmp sgt i32 %.val.i.i.i3, 0
  br i1 %18, label %19, label %21, !prof !28

19:                                               ; preds = %17
  %20 = add nuw nsw i32 %.val.i.i.i3, 1
  store i32 %20, ptr %14, align 4, !tbaa !25
  br label %_ZNK4lean10object_ref10to_obj_argEv.exit6

21:                                               ; preds = %17
  %.not.i.i.i4 = icmp eq i32 %.val.i.i.i3, 0
  br i1 %.not.i.i.i4, label %_ZNK4lean10object_ref10to_obj_argEv.exit6, label %22

22:                                               ; preds = %21
  tail call void @lean_inc_ref_cold(ptr noundef nonnull %14)
  %.pre.i5 = load ptr, ptr %2, align 8, !tbaa !13
  br label %_ZNK4lean10object_ref10to_obj_argEv.exit6

_ZNK4lean10object_ref10to_obj_argEv.exit6:        ; preds = %_ZNK4lean10object_ref10to_obj_argEv.exit, %19, %21, %22
  %23 = phi ptr [ %14, %_ZNK4lean10object_ref10to_obj_argEv.exit ], [ %14, %19 ], [ %14, %21 ], [ %.pre.i5, %22 ]
  %24 = tail call ptr @lean_csimp_replace_constants(ptr noundef %13, ptr noundef %23)
  store ptr %24, ptr %0, align 8, !tbaa !13
  ret void
}